; Function Attrs: mustprogress uwtable
define hidden void @_ZN18macro_substitutionC2ER11ast_managerb(ptr noundef nonnull align 8 dereferenceable(49) initializes((0, 28), (32, 48)) %0, ptr noundef nonnull align 8 dereferenceable(976) %1, i1 noundef zeroext %2) unnamed_addr #3 align 2 personality ptr @__gxx_personality_v0 {
  store ptr %1, ptr %0, align 8, !tbaa !25
  %4 = getelementptr inbounds nuw i8, ptr %0, i64 8
  %5 = tail call noalias noundef ptr @_ZN6memory8allocateEm(i64 noundef 128)
  tail call void @llvm.memset.p0.i64(ptr noundef nonnull align 8 dereferenceable(128) %5, i8 0, i64 128, i1 false)
  store ptr %5, ptr %4, align 8, !tbaa !27
  %6 = getelementptr inbounds nuw i8, ptr %0, i64 16
  store i32 8, ptr %6, align 8, !tbaa !30
  %7 = getelementptr inbounds nuw i8, ptr %0, i64 20
  store i32 0, ptr %7, align 4, !tbaa !31
  %8 = getelementptr inbounds nuw i8, ptr %0, i64 24
  store i32 0, ptr %8, align 8, !tbaa !32
  %9 = getelementptr inbounds nuw i8, ptr %0, i64 32
  %10 = getelementptr inbounds nuw i8, ptr %0, i64 48
  %11 = zext i1 %2 to i8
  tail call void @llvm.memset.p0.i64(ptr noundef nonnull align 8 dereferenceable(16) %9, i8 0, i64 16, i1 false)
  %12 = load i8, ptr %10, align 8
  %13 = and i8 %12, -2
  %14 = or disjoint i8 %13, %11
  store i8 %14, ptr %10, align 8
  %15 = getelementptr inbounds nuw i8, ptr %1, i64 712
  %16 = load i32, ptr %15, align 8, !tbaa !33
  %.not = icmp eq i32 %16, 0
  %17 = select i1 %.not, i8 0, i8 2
  %18 = and i8 %14, -3
  %19 = or disjoint i8 %17, %18
  store i8 %19, ptr %10, align 8
  invoke void @_ZN18macro_substitution4initEv(ptr noundef nonnull align 8 dereferenceable(49) %0)
          to label %20 unwind label %21

20:                                               ; preds = %3
  ret void

21:                                               ; preds = %3
  %22 = landingpad { ptr, i32 }
          cleanup
  %23 = getelementptr inbounds nuw i8, ptr %0, i64 40
  tail call void @_ZN10scoped_ptrI7obj_mapI9func_declPN18dependency_managerIN11ast_manager22expr_dependency_configEE10dependencyEEED2Ev(ptr noundef nonnull align 8 dereferenceable(8) %23) #21
  tail call void @_ZN10scoped_ptrI7obj_mapI9func_declP3appEED2Ev(ptr noundef nonnull align 8 dereferenceable(8) %9) #21
  tail call void @_ZN7obj_mapI9func_declP10quantifierED2Ev(ptr noundef nonnull align 8 dereferenceable(24) %4) #21
  resume { ptr, i32 } %22
}